; Function Attrs: mustprogress uwtable
define void @_ZN7rocksdb31UserKeyTablePropertiesCollector6FinishEPSt3mapINSt7__cxx1112basic_stringIcSt11char_traitsIcESaIcEEES7_St4lessIS7_ESaISt4pairIKS7_S7_EEE(ptr noalias sret(%"class.rocksdb::Status") align 8 %agg.result, ptr nocapture noundef nonnull readonly align 8 dereferenceable(16) %this, ptr noundef %properties) unnamed_addr #0 align 2 {
entry:
  %collector_ = getelementptr inbounds i8, ptr %this, i64 8
  %0 = load ptr, ptr %collector_, align 8
  %vtable = load ptr, ptr %0, align 8
  %vfn = getelementptr inbounds i8, ptr %vtable, i64 40
  %1 = load ptr, ptr %vfn, align 8
  tail call void %1(ptr sret(%"class.rocksdb::Status") align 8 %agg.result, ptr noundef nonnull align 8 dereferenceable(8) %0, ptr noundef %properties)
  ret void
}